target datalayout = "e-m:e-p270:32:32-p271:32:32-p272:64:64-i64:64-i128:128-f80:128-n8:16:32:64-S128"
target triple = "x86_64-pc-linux-gnu"

; Function Attrs: mustprogress uwtable
define internal noundef i32 @_ZL28xtc_get_current_frame_numberP8_IO_FILEP3XDRiPb(ptr noundef %0, ptr noundef %1, i32 noundef %2, ptr noundef %3) #0 {
  %5 = alloca i32, align 4
  %6 = alloca ptr, align 8
  %7 = alloca ptr, align 8
  %8 = alloca i32, align 4
  %9 = alloca ptr, align 8
  %10 = alloca i64, align 8
  %11 = alloca i32, align 4
  %12 = alloca i32, align 4
  %13 = alloca float, align 4
  %14 = alloca i32, align 4
  store ptr %0, ptr %6, align 8, !tbaa !31
  store ptr %1, ptr %7, align 8, !tbaa !17
  store i32 %2, ptr %8, align 4, !tbaa !13
  store ptr %3, ptr %9, align 8, !tbaa !78
  call void @llvm.lifetime.start.p0(i64 8, ptr %10) #11
  call void @llvm.lifetime.start.p0(i64 4, ptr %11) #11
  call void @llvm.lifetime.start.p0(i64 4, ptr %12) #11
  call void @llvm.lifetime.start.p0(i64 4, ptr %13) #11
  %15 = load ptr, ptr %9, align 8, !tbaa !78
  store i8 0, ptr %15, align 1, !tbaa !29
  %16 = load ptr, ptr %6, align 8, !tbaa !31
  %17 = call noundef i64 @_Z9gmx_ftellP8_IO_FILE(ptr noundef %16)
  store i64 %17, ptr %10, align 8, !tbaa !23
  %18 = icmp slt i64 %17, 0
  br i1 %18, label %19, label %20

19:                                               ; preds = %4
  store i32 -1, ptr %5, align 4
  store i32 1, ptr %14, align 4
  br label %61

20:                                               ; preds = %4
  br label %21

21:                                               ; preds = %60, %20
  br label %22

22:                                               ; preds = %21
  %23 = load ptr, ptr %6, align 8, !tbaa !31
  %24 = load ptr, ptr %7, align 8, !tbaa !17
  %25 = load i32, ptr %8, align 4, !tbaa !13
  %26 = call noundef i32 @_ZL19xtc_at_header_startP8_IO_FILEP3XDRiPiPf(ptr noundef %23, ptr noundef %24, i32 noundef %25, ptr noundef %12, ptr noundef %13)
  store i32 %26, ptr %11, align 4, !tbaa !13
  %27 = load i32, ptr %11, align 4, !tbaa !13
  %28 = icmp eq i32 %27, 1
  br i1 %28, label %29, label %39

29:                                               ; preds = %22
  %30 = load ptr, ptr %9, align 8, !tbaa !78
  store i8 1, ptr %30, align 1, !tbaa !29
  %31 = load ptr, ptr %6, align 8, !tbaa !31
  %32 = load i64, ptr %10, align 8, !tbaa !23
  %33 = call noundef i32 @_Z9gmx_fseekP8_IO_FILEli(ptr noundef %31, i64 noundef %32, i32 noundef 0)
  %34 = icmp ne i32 %33, 0
  br i1 %34, label %35, label %37

35:                                               ; preds = %29
  %36 = load ptr, ptr %9, align 8, !tbaa !78
  store i8 0, ptr %36, align 1, !tbaa !29
  store i32 -1, ptr %5, align 4
  store i32 1, ptr %14, align 4
  br label %61

37:                                               ; preds = %29
  %38 = load i32, ptr %12, align 4, !tbaa !13
  store i32 %38, ptr %5, align 4
  store i32 1, ptr %14, align 4
  br label %61

39:                                               ; preds = %22
  %40 = load i32, ptr %11, align 4, !tbaa !13
  %41 = icmp eq i32 %40, -1
  br i1 %41, label %42, label %49

42:                                               ; preds = %39
  %43 = load ptr, ptr %6, align 8, !tbaa !31
  %44 = load i64, ptr %10, align 8, !tbaa !23
  %45 = call noundef i32 @_Z9gmx_fseekP8_IO_FILEli(ptr noundef %43, i64 noundef %44, i32 noundef 0)
  %46 = icmp ne i32 %45, 0
  br i1 %46, label %47, label %48

47:                                               ; preds = %42
  store i32 -1, ptr %5, align 4
  store i32 1, ptr %14, align 4
  br label %61

48:                                               ; preds = %42
  store i32 -1, ptr %5, align 4
  store i32 1, ptr %14, align 4
  br label %61

49:                                               ; preds = %39
  %50 = load i32, ptr %11, align 4, !tbaa !13
  %51 = icmp eq i32 %50, 0
  br i1 %51, label %52, label %58

52:                                               ; preds = %49
  %53 = load ptr, ptr %6, align 8, !tbaa !31
  %54 = call noundef i32 @_Z9gmx_fseekP8_IO_FILEli(ptr noundef %53, i64 noundef -8, i32 noundef 1)
  %55 = icmp ne i32 %54, 0
  br i1 %55, label %56, label %57

56:                                               ; preds = %52
  store i32 -1, ptr %5, align 4
  store i32 1, ptr %14, align 4
  br label %61

57:                                               ; preds = %52
  br label %58

58:                                               ; preds = %57, %49
  br label %59

59:                                               ; preds = %58
  br label %60

60:                                               ; preds = %59
  br label %21, !llvm.loop !82

61:                                               ; preds = %56, %48, %47, %37, %35, %19
  call void @llvm.lifetime.end.p0(i64 4, ptr %13) #11
  call void @llvm.lifetime.end.p0(i64 4, ptr %12) #11
  call void @llvm.lifetime.end.p0(i64 4, ptr %11) #11
  call void @llvm.lifetime.end.p0(i64 8, ptr %10) #11
  %62 = load i32, ptr %5, align 4
  ret i32 %62
}

; Function Attrs: mustprogress uwtable
define noundef i32 @_Z29xdr_xtc_get_last_frame_numberP8_IO_FILEP3XDRiPb(ptr noundef %0, ptr noundef %1, i32 noundef %2, ptr noundef %3) #0 {
  %5 = alloca i32, align 4
  %6 = alloca ptr, align 8
  %7 = alloca ptr, align 8
  %8 = alloca i32, align 4
  %9 = alloca ptr, align 8
  %10 = alloca i32, align 4
  %11 = alloca i64, align 8
  %12 = alloca i32, align 4
  store ptr %0, ptr %6, align 8, !tbaa !31
  store ptr %1, ptr %7, align 8, !tbaa !17
  store i32 %2, ptr %8, align 4, !tbaa !13
  store ptr %3, ptr %9, align 8, !tbaa !78
  call void @llvm.lifetime.start.p0(i64 4, ptr %10) #11
  call void @llvm.lifetime.start.p0(i64 8, ptr %11) #11
  %13 = load ptr, ptr %9, align 8, !tbaa !78
  store i8 1, ptr %13, align 1, !tbaa !29
  %14 = load ptr, ptr %6, align 8, !tbaa !31
  %15 = call noundef i64 @_Z9gmx_ftellP8_IO_FILE(ptr noundef %14)
  store i64 %15, ptr %11, align 8, !tbaa !23
  %16 = icmp slt i64 %15, 0
  br i1 %16, label %17, label %19

17:                                               ; preds = %4
  %18 = load ptr, ptr %9, align 8, !tbaa !78
  store i8 0, ptr %18, align 1, !tbaa !29
  store i32 -1, ptr %5, align 4
  store i32 1, ptr %12, align 4
  br label %44

19:                                               ; preds = %4
  %20 = load ptr, ptr %6, align 8, !tbaa !31
  %21 = call noundef i32 @_Z9gmx_fseekP8_IO_FILEli(ptr noundef %20, i64 noundef -12, i32 noundef 2)
  %22 = icmp ne i32 %21, 0
  br i1 %22, label %23, label %25

23:                                               ; preds = %19
  %24 = load ptr, ptr %9, align 8, !tbaa !78
  store i8 0, ptr %24, align 1, !tbaa !29
  store i32 -1, ptr %5, align 4
  store i32 1, ptr %12, align 4
  br label %44

25:                                               ; preds = %19
  %26 = load ptr, ptr %6, align 8, !tbaa !31
  %27 = load ptr, ptr %7, align 8, !tbaa !17
  %28 = load i32, ptr %8, align 4, !tbaa !13
  %29 = load ptr, ptr %9, align 8, !tbaa !78
  %30 = call noundef i32 @_ZL28xtc_get_current_frame_numberP8_IO_FILEP3XDRiPb(ptr noundef %26, ptr noundef %27, i32 noundef %28, ptr noundef %29)
  store i32 %30, ptr %10, align 4, !tbaa !13
  %31 = load ptr, ptr %9, align 8, !tbaa !78
  %32 = load i8, ptr %31, align 1, !tbaa !29, !range !35, !noundef !36
  %33 = trunc i8 %32 to i1
  br i1 %33, label %35, label %34

34:                                               ; preds = %25
  store i32 -1, ptr %5, align 4
  store i32 1, ptr %12, align 4
  br label %44

35:                                               ; preds = %25
  %36 = load ptr, ptr %6, align 8, !tbaa !31
  %37 = load i64, ptr %11, align 8, !tbaa !23
  %38 = call noundef i32 @_Z9gmx_fseekP8_IO_FILEli(ptr noundef %36, i64 noundef %37, i32 noundef 0)
  %39 = icmp ne i32 %38, 0
  br i1 %39, label %40, label %42

40:                                               ; preds = %35
  %41 = load ptr, ptr %9, align 8, !tbaa !78
  store i8 0, ptr %41, align 1, !tbaa !29
  store i32 -1, ptr %5, align 4
  store i32 1, ptr %12, align 4
  br label %44

42:                                               ; preds = %35
  %43 = load i32, ptr %10, align 4, !tbaa !13
  store i32 %43, ptr %5, align 4
  store i32 1, ptr %12, align 4
  br label %44

44:                                               ; preds = %42, %40, %34, %23, %17
  call void @llvm.lifetime.end.p0(i64 8, ptr %11) #11
  call void @llvm.lifetime.end.p0(i64 4, ptr %10) #11
  %45 = load i32, ptr %5, align 4
  ret i32 %45
}