; Function Attrs: mustprogress uwtable
define noundef i32 @_Z29xdr_xtc_get_last_frame_numberP8_IO_FILEP3XDRiPb(ptr noundef %0, ptr noundef %1, i32 noundef %2, ptr noundef captures(none) initializes((0, 1)) %3) local_unnamed_addr #3 {
  %5 = alloca i32, align 4
  %6 = alloca float, align 4
  store i8 1, ptr %3, align 1, !tbaa !56
  %7 = tail call noundef i64 @_Z9gmx_ftellP8_IO_FILE(ptr noundef %0)
  %8 = icmp slt i64 %7, 0
  br i1 %8, label %.sink.split, label %9

9:                                                ; preds = %4
  %10 = tail call noundef i32 @_Z9gmx_fseekP8_IO_FILEli(ptr noundef %0, i64 noundef -12, i32 noundef 2)
  %.not = icmp eq i32 %10, 0
  br i1 %.not, label %11, label %.sink.split

11:                                               ; preds = %9
  call void @llvm.lifetime.start.p0(i64 4, ptr nonnull %5) #17
  call void @llvm.lifetime.start.p0(i64 4, ptr nonnull %6) #17
  store i8 0, ptr %3, align 1, !tbaa !56
  %12 = tail call noundef i64 @_Z9gmx_ftellP8_IO_FILE(ptr noundef %0)
  %13 = icmp slt i64 %12, 0
  br i1 %13, label %_ZL28xtc_get_current_frame_numberP8_IO_FILEP3XDRiPb.exit, label %.preheader.i

.preheader.i:                                     ; preds = %11, %22
  %14 = call fastcc noundef i32 @_ZL19xtc_at_header_startP8_IO_FILEP3XDRiPiPf(ptr noundef %0, ptr noundef %1, i32 noundef %2, ptr noundef %5, ptr noundef %6)
  switch i32 %14, label %22 [
    i32 1, label %15
    i32 -1, label %20
  ]

15:                                               ; preds = %.preheader.i
  store i8 1, ptr %3, align 1, !tbaa !56
  %16 = tail call noundef i32 @_Z9gmx_fseekP8_IO_FILEli(ptr noundef %0, i64 noundef %12, i32 noundef 0)
  %.not16.i = icmp eq i32 %16, 0
  br i1 %.not16.i, label %18, label %17

17:                                               ; preds = %15
  store i8 0, ptr %3, align 1, !tbaa !56
  br label %_ZL28xtc_get_current_frame_numberP8_IO_FILEP3XDRiPb.exit

18:                                               ; preds = %15
  %19 = load i32, ptr %5, align 4, !tbaa !16
  br label %_ZL28xtc_get_current_frame_numberP8_IO_FILEP3XDRiPb.exit

20:                                               ; preds = %.preheader.i
  %21 = tail call noundef i32 @_Z9gmx_fseekP8_IO_FILEli(ptr noundef %0, i64 noundef %12, i32 noundef 0)
  br label %_ZL28xtc_get_current_frame_numberP8_IO_FILEP3XDRiPb.exit

22:                                               ; preds = %.preheader.i
  %23 = tail call noundef i32 @_Z9gmx_fseekP8_IO_FILEli(ptr noundef %0, i64 noundef -8, i32 noundef 1)
  %.not.i = icmp eq i32 %23, 0
  br i1 %.not.i, label %.preheader.i, label %_ZL28xtc_get_current_frame_numberP8_IO_FILEP3XDRiPb.exit, !llvm.loop !62

_ZL28xtc_get_current_frame_numberP8_IO_FILEP3XDRiPb.exit: ; preds = %22, %11, %17, %18, %20
  %.0.i = phi i32 [ -1, %17 ], [ %19, %18 ], [ -1, %20 ], [ -1, %11 ], [ -1, %22 ]
  call void @llvm.lifetime.end.p0(i64 4, ptr nonnull %6) #17
  call void @llvm.lifetime.end.p0(i64 4, ptr nonnull %5) #17
  %24 = load i8, ptr %3, align 1, !tbaa !56, !range !58, !noundef !59
  %25 = trunc nuw i8 %24 to i1
  br i1 %25, label %26, label %28

26:                                               ; preds = %_ZL28xtc_get_current_frame_numberP8_IO_FILEP3XDRiPb.exit
  %27 = tail call noundef i32 @_Z9gmx_fseekP8_IO_FILEli(ptr noundef %0, i64 noundef %7, i32 noundef 0)
  %.not15 = icmp eq i32 %27, 0
  br i1 %.not15, label %28, label %.sink.split

.sink.split:                                      ; preds = %26, %9, %4
  store i8 0, ptr %3, align 1, !tbaa !56
  br label %28

28:                                               ; preds = %.sink.split, %26, %_ZL28xtc_get_current_frame_numberP8_IO_FILEP3XDRiPb.exit
  %.0 = phi i32 [ -1, %_ZL28xtc_get_current_frame_numberP8_IO_FILEP3XDRiPb.exit ], [ %.0.i, %26 ], [ -1, %.sink.split ]
  ret i32 %.0
}